; ModuleID = '22/133.c'
source_filename = "22/133.c"
target datalayout = "e-m:e-p270:32:32-p271:32:32-p272:64:64-i64:64-f80:128-n8:16:32:64-S128"
target triple = "x86_64-pc-linux-gnu"

@.str = private unnamed_addr constant [3 x i8] c"%d\00", align 1
@.str.1 = private unnamed_addr constant [3 x i8] c"No\00", align 1

; Function Attrs: noinline nounwind uwtable
define dso_local void @main() #0 {
  %1 = alloca i32, align 4
  %2 = alloca i32, align 4
  %3 = alloca [300 x i32], align 16
  %4 = alloca i32, align 4
  %5 = alloca i32, align 4
  %6 = alloca i32, align 4
  %7 = alloca i8, align 1
  store i32 0, i32* %1, align 4
  store i32 0, i32* %2, align 4
  store i32 0, i32* %4, align 4
  %8 = load i32, i32* %4, align 4
  %9 = sext i32 %8 to i64
  %10 = getelementptr inbounds [300 x i32], [300 x i32]* %3, i64 0, i64 %9
  %11 = call i32 (i8*, ...) @__isoc99_scanf(i8* getelementptr inbounds ([3 x i8], [3 x i8]* @.str, i64 0, i64 0), i32* %10)
  %12 = load i32, i32* %4, align 4
  %13 = add nsw i32 %12, 1
  store i32 %13, i32* %4, align 4
  %14 = load i32, i32* %2, align 4
  %15 = add nsw i32 %14, 1
  store i32 %15, i32* %2, align 4
  br label %16

16:                                               ; preds = %34, %0
  %17 = call i32 @getchar()
  %18 = trunc i32 %17 to i8
  store i8 %18, i8* %7, align 1
  %19 = sext i8 %18 to i32
  %20 = icmp eq i32 %19, 44
  br i1 %20, label %21, label %39

21:                                               ; preds = %16
  %22 = load i32, i32* %4, align 4
  %23 = sext i32 %22 to i64
  %24 = getelementptr inbounds [300 x i32], [300 x i32]* %3, i64 0, i64 %23
  %25 = call i32 (i8*, ...) @__isoc99_scanf(i8* getelementptr inbounds ([3 x i8], [3 x i8]* @.str, i64 0, i64 0), i32* %24)
  %26 = load i32, i32* %4, align 4
  %27 = sext i32 %26 to i64
  %28 = getelementptr inbounds [300 x i32], [300 x i32]* %3, i64 0, i64 %27
  %29 = load i32, i32* %28, align 4
  %30 = getelementptr inbounds [300 x i32], [300 x i32]* %3, i64 0, i64 0
  %31 = load i32, i32* %30, align 16
  %32 = icmp ne i32 %29, %31
  br i1 %32, label %33, label %34

33:                                               ; preds = %21
  store i32 1, i32* %1, align 4
  br label %34

34:                                               ; preds = %33, %21
  %35 = load i32, i32* %4, align 4
  %36 = add nsw i32 %35, 1
  store i32 %36, i32* %4, align 4
  %37 = load i32, i32* %2, align 4
  %38 = add nsw i32 %37, 1
  store i32 %38, i32* %2, align 4
  br label %16

39:                                               ; preds = %16
  %40 = load i32, i32* %2, align 4
  %41 = icmp eq i32 %40, 1
  br i1 %41, label %45, label %42

42:                                               ; preds = %39
  %43 = load i32, i32* %1, align 4
  %44 = icmp eq i32 %43, 0
  br i1 %44, label %45, label %47

45:                                               ; preds = %42, %39
  %46 = call i32 (i8*, ...) @printf(i8* getelementptr inbounds ([3 x i8], [3 x i8]* @.str.1, i64 0, i64 0))
  br label %126

47:                                               ; preds = %42
  store i32 0, i32* %5, align 4
  br label %48

48:                                               ; preds = %95, %47
  %49 = load i32, i32* %5, align 4
  %50 = load i32, i32* %2, align 4
  %51 = sub nsw i32 %50, 1
  %52 = icmp slt i32 %49, %51
  br i1 %52, label %53, label %98

53:                                               ; preds = %48
  store i32 0, i32* %4, align 4
  br label %54

54:                                               ; preds = %91, %53
  %55 = load i32, i32* %4, align 4
  %56 = load i32, i32* %2, align 4
  %57 = sub nsw i32 %56, 1
  %58 = load i32, i32* %5, align 4
  %59 = sub nsw i32 %57, %58
  %60 = icmp slt i32 %55, %59
  br i1 %60, label %61, label %94

61:                                               ; preds = %54
  %62 = load i32, i32* %4, align 4
  %63 = sext i32 %62 to i64
  %64 = getelementptr inbounds [300 x i32], [300 x i32]* %3, i64 0, i64 %63
  %65 = load i32, i32* %64, align 4
  %66 = load i32, i32* %4, align 4
  %67 = add nsw i32 %66, 1
  %68 = sext i32 %67 to i64
  %69 = getelementptr inbounds [300 x i32], [300 x i32]* %3, i64 0, i64 %68
  %70 = load i32, i32* %69, align 4
  %71 = icmp sgt i32 %65, %70
  br i1 %71, label %72, label %90

72:                                               ; preds = %61
  %73 = load i32, i32* %4, align 4
  %74 = sext i32 %73 to i64
  %75 = getelementptr inbounds [300 x i32], [300 x i32]* %3, i64 0, i64 %74
  %76 = load i32, i32* %75, align 4
  store i32 %76, i32* %6, align 4
  %77 = load i32, i32* %4, align 4
  %78 = add nsw i32 %77, 1
  %79 = sext i32 %78 to i64
  %80 = getelementptr inbounds [300 x i32], [300 x i32]* %3, i64 0, i64 %79
  %81 = load i32, i32* %80, align 4
  %82 = load i32, i32* %4, align 4
  %83 = sext i32 %82 to i64
  %84 = getelementptr inbounds [300 x i32], [300 x i32]* %3, i64 0, i64 %83
  store i32 %81, i32* %84, align 4
  %85 = load i32, i32* %6, align 4
  %86 = load i32, i32* %4, align 4
  %87 = add nsw i32 %86, 1
  %88 = sext i32 %87 to i64
  %89 = getelementptr inbounds [300 x i32], [300 x i32]* %3, i64 0, i64 %88
  store i32 %85, i32* %89, align 4
  br label %90

90:                                               ; preds = %72, %61
  br label %91

91:                                               ; preds = %90
  %92 = load i32, i32* %4, align 4
  %93 = add nsw i32 %92, 1
  store i32 %93, i32* %4, align 4
  br label %54

94:                                               ; preds = %54
  br label %95

95:                                               ; preds = %94
  %96 = load i32, i32* %5, align 4
  %97 = add nsw i32 %96, 1
  store i32 %97, i32* %5, align 4
  br label %48

98:                                               ; preds = %48
  %99 = load i32, i32* %2, align 4
  %100 = sub nsw i32 %99, 2
  store i32 %100, i32* %5, align 4
  br label %101

101:                                              ; preds = %122, %98
  %102 = load i32, i32* %5, align 4
  %103 = icmp sge i32 %102, 0
  br i1 %103, label %104, label %125

104:                                              ; preds = %101
  %105 = load i32, i32* %5, align 4
  %106 = sext i32 %105 to i64
  %107 = getelementptr inbounds [300 x i32], [300 x i32]* %3, i64 0, i64 %106
  %108 = load i32, i32* %107, align 4
  %109 = load i32, i32* %2, align 4
  %110 = sub nsw i32 %109, 1
  %111 = sext i32 %110 to i64
  %112 = getelementptr inbounds [300 x i32], [300 x i32]* %3, i64 0, i64 %111
  %113 = load i32, i32* %112, align 4
  %114 = icmp slt i32 %108, %113
  br i1 %114, label %115, label %121

115:                                              ; preds = %104
  %116 = load i32, i32* %5, align 4
  %117 = sext i32 %116 to i64
  %118 = getelementptr inbounds [300 x i32], [300 x i32]* %3, i64 0, i64 %117
  %119 = load i32, i32* %118, align 4
  %120 = call i32 (i8*, ...) @printf(i8* getelementptr inbounds ([3 x i8], [3 x i8]* @.str, i64 0, i64 0), i32 %119)
  br label %125

121:                                              ; preds = %104
  br label %122

122:                                              ; preds = %121
  %123 = load i32, i32* %5, align 4
  %124 = add nsw i32 %123, -1
  store i32 %124, i32* %5, align 4
  br label %101

125:                                              ; preds = %115, %101
  br label %126

126:                                              ; preds = %125, %45
  ret void
}

declare dso_local i32 @__isoc99_scanf(i8*, ...) #1

declare dso_local i32 @getchar() #1

declare dso_local i32 @printf(i8*, ...) #1


!llvm.module.flags = !{!0}
!llvm.ident = !{!1}

!0 = !{i32 1, !"wchar_size", i32 4}
!1 = !{!"clang version 10.0.0-4ubuntu1 "}
